; Function Attrs: nounwind uwtable
define ptr @l___private_Lean_Elab_LetRec_0__Lean_Elab_Term_withAuxLocalDecls_loop___rarg___lambda__1___boxed(ptr noundef %0, ptr noundef %1, ptr noundef %2, ptr noundef %3, ptr noundef %4, ptr noundef %5, ptr noundef %6, ptr noundef %7, ptr noundef %8, ptr noundef %9, ptr noundef %10, ptr noundef %11) #0 {
  %13 = ptrtoint ptr %0 to i64
  %14 = and i64 %13, 1
  %.not.i14 = icmp eq i64 %14, 0
  br i1 %.not.i14, label %.critedge.i.i, label %15, !prof !18

15:                                               ; preds = %12
  %16 = lshr i64 %13, 1
  %17 = add nuw i64 %16, 1
  %18 = icmp sgt i64 %17, -1
  br i1 %18, label %19, label %23, !prof !9

19:                                               ; preds = %15
  %20 = shl nuw i64 %17, 1
  %21 = or disjoint i64 %20, 1
  %22 = inttoptr i64 %21 to ptr
  br label %l___private_Lean_Elab_LetRec_0__Lean_Elab_Term_withAuxLocalDecls_loop___rarg___lambda__1.exit

23:                                               ; preds = %15
  %24 = tail call ptr @lean_big_usize_to_nat(i64 noundef range(i64 0, -1) %17) #5
  br label %l___private_Lean_Elab_LetRec_0__Lean_Elab_Term_withAuxLocalDecls_loop___rarg___lambda__1.exit

.critedge.i.i:                                    ; preds = %12
  %25 = tail call ptr @lean_nat_big_add(ptr noundef %0, ptr noundef nonnull inttoptr (i64 3 to ptr)) #5
  br label %l___private_Lean_Elab_LetRec_0__Lean_Elab_Term_withAuxLocalDecls_loop___rarg___lambda__1.exit

l___private_Lean_Elab_LetRec_0__Lean_Elab_Term_withAuxLocalDecls_loop___rarg___lambda__1.exit: ; preds = %19, %23, %.critedge.i.i
  %.0.i.i = phi ptr [ %25, %.critedge.i.i ], [ %22, %19 ], [ %24, %23 ]
  %26 = tail call ptr @lean_array_push(ptr noundef %1, ptr noundef %4) #5
  %27 = tail call ptr @l___private_Lean_Elab_LetRec_0__Lean_Elab_Term_withAuxLocalDecls_loop___rarg(ptr noundef %2, ptr noundef %3, ptr noundef %.0.i.i, ptr noundef %26, ptr noundef %5, ptr noundef %6, ptr noundef %7, ptr noundef %8, ptr noundef %9, ptr noundef %10, ptr noundef %11)
  br i1 %.not.i14, label %28, label %lean_dec.exit

28:                                               ; preds = %l___private_Lean_Elab_LetRec_0__Lean_Elab_Term_withAuxLocalDecls_loop___rarg___lambda__1.exit
  %29 = load i32, ptr %0, align 4, !tbaa !4
  %30 = icmp sgt i32 %29, 1
  br i1 %30, label %31, label %33, !prof !9

31:                                               ; preds = %28
  %32 = add nsw i32 %29, -1
  store i32 %32, ptr %0, align 4, !tbaa !4
  br label %lean_dec.exit

33:                                               ; preds = %28
  %.not.i = icmp eq i32 %29, 0
  br i1 %.not.i, label %lean_dec.exit, label %34

34:                                               ; preds = %33
  tail call void @lean_dec_ref_cold(ptr noundef nonnull %0) #5
  br label %lean_dec.exit

lean_dec.exit:                                    ; preds = %34, %33, %31, %l___private_Lean_Elab_LetRec_0__Lean_Elab_Term_withAuxLocalDecls_loop___rarg___lambda__1.exit
  ret ptr %27
}